target datalayout = "e-m:e-p270:32:32-p271:32:32-p272:64:64-i64:64-i128:128-f80:128-n8:16:32:64-S128"
target triple = "x86_64-unknown-linux-gnu"

%"class.rocksdb::Slice" = type { ptr, i64 }
%"class.rocksdb::(anonymous namespace)::TwoLevelIndexIterator" = type { %"class.rocksdb::InternalIteratorBase", ptr, %"class.rocksdb::IteratorWrapperBase", %"class.rocksdb::IteratorWrapperBase", %"class.rocksdb::Status", %"class.rocksdb::BlockHandle" }
%"class.rocksdb::InternalIteratorBase" = type { ptr, %"class.rocksdb::Cleanable" }
%"class.rocksdb::Cleanable" = type { %"struct.rocksdb::Cleanable::Cleanup" }
%"struct.rocksdb::Cleanable::Cleanup" = type { ptr, ptr, ptr, ptr }
%"class.rocksdb::IteratorWrapperBase" = type <{ ptr, %"struct.rocksdb::IterateResult", i8, [7 x i8] }>
%"struct.rocksdb::IterateResult" = type <{ %"class.rocksdb::Slice", i8, i8, [6 x i8] }>
%"class.rocksdb::Status" = type { i8, i8, i8, i8, i8, i8, %"class.std::unique_ptr" }
%"class.std::unique_ptr" = type { %"struct.std::__uniq_ptr_data" }
%"struct.std::__uniq_ptr_data" = type { %"class.std::__uniq_ptr_impl" }
%"class.std::__uniq_ptr_impl" = type { %"class.std::tuple" }
%"class.std::tuple" = type { %"struct.std::_Tuple_impl" }
%"struct.std::_Tuple_impl" = type { %"struct.std::_Head_base.1" }
%"struct.std::_Head_base.1" = type { ptr }
%"class.rocksdb::BlockHandle" = type { i64, i64 }

; Function Attrs: mustprogress uwtable
define linkonce_odr void @_ZN7rocksdb19IteratorWrapperBaseINS_10IndexValueEE6UpdateEv(ptr noundef nonnull align 8 dereferenceable(33) %this) #0 comdat align 2 {
entry:
  %this.addr = alloca ptr, align 8
  %ref.tmp = alloca %"class.rocksdb::Slice", align 8
  store ptr %this, ptr %this.addr, align 8
  %this1 = load ptr, ptr %this.addr, align 8
  %iter_ = getelementptr inbounds %"class.rocksdb::IteratorWrapperBase", ptr %this1, i32 0, i32 0
  %0 = load ptr, ptr %iter_, align 8
  %vtable = load ptr, ptr %0, align 8
  %vfn = getelementptr inbounds ptr, ptr %vtable, i64 3
  %1 = load ptr, ptr %vfn, align 8
  %call = call noundef zeroext i1 %1(ptr noundef nonnull align 8 dereferenceable(40) %0)
  %valid_ = getelementptr inbounds %"class.rocksdb::IteratorWrapperBase", ptr %this1, i32 0, i32 2
  %frombool = zext i1 %call to i8
  store i8 %frombool, ptr %valid_, align 8
  %valid_2 = getelementptr inbounds %"class.rocksdb::IteratorWrapperBase", ptr %this1, i32 0, i32 2
  %2 = load i8, ptr %valid_2, align 8
  %tobool = trunc i8 %2 to i1
  br i1 %tobool, label %if.then, label %if.end

if.then:                                          ; preds = %entry
  %iter_3 = getelementptr inbounds %"class.rocksdb::IteratorWrapperBase", ptr %this1, i32 0, i32 0
  %3 = load ptr, ptr %iter_3, align 8
  %vtable4 = load ptr, ptr %3, align 8
  %vfn5 = getelementptr inbounds ptr, ptr %vtable4, i64 11
  %4 = load ptr, ptr %vfn5, align 8
  %call6 = call { ptr, i64 } %4(ptr noundef nonnull align 8 dereferenceable(40) %3)
  %5 = getelementptr inbounds { ptr, i64 }, ptr %ref.tmp, i32 0, i32 0
  %6 = extractvalue { ptr, i64 } %call6, 0
  store ptr %6, ptr %5, align 8
  %7 = getelementptr inbounds { ptr, i64 }, ptr %ref.tmp, i32 0, i32 1
  %8 = extractvalue { ptr, i64 } %call6, 1
  store i64 %8, ptr %7, align 8
  %result_ = getelementptr inbounds %"class.rocksdb::IteratorWrapperBase", ptr %this1, i32 0, i32 1
  %key = getelementptr inbounds %"struct.rocksdb::IterateResult", ptr %result_, i32 0, i32 0
  call void @llvm.memcpy.p0.p0.i64(ptr align 8 %key, ptr align 8 %ref.tmp, i64 16, i1 false)
  %result_7 = getelementptr inbounds %"class.rocksdb::IteratorWrapperBase", ptr %this1, i32 0, i32 1
  %bound_check_result = getelementptr inbounds %"struct.rocksdb::IterateResult", ptr %result_7, i32 0, i32 1
  store i8 0, ptr %bound_check_result, align 8
  %result_8 = getelementptr inbounds %"class.rocksdb::IteratorWrapperBase", ptr %this1, i32 0, i32 1
  %value_prepared = getelementptr inbounds %"struct.rocksdb::IterateResult", ptr %result_8, i32 0, i32 2
  store i8 0, ptr %value_prepared, align 1
  br label %if.end

if.end:                                           ; preds = %if.then, %entry
  ret void
}

; Function Attrs: mustprogress nounwind uwtable
define linkonce_odr noundef ptr @_ZNK7rocksdb19IteratorWrapperBaseINS_10IndexValueEE4iterEv(ptr noundef nonnull align 8 dereferenceable(33) %this) #1 comdat align 2 {
entry:
  %this.addr = alloca ptr, align 8
  store ptr %this, ptr %this.addr, align 8
  %this1 = load ptr, ptr %this.addr, align 8
  %iter_ = getelementptr inbounds %"class.rocksdb::IteratorWrapperBase", ptr %this1, i32 0, i32 0
  %0 = load ptr, ptr %iter_, align 8
  ret ptr %0
}

; Function Attrs: mustprogress uwtable
define linkonce_odr void @_ZN7rocksdb19IteratorWrapperBaseINS_10IndexValueEE4SeekERKNS_5SliceE(ptr noundef nonnull align 8 dereferenceable(33) %this, ptr noundef nonnull align 8 dereferenceable(16) %k) #0 comdat align 2 {
entry:
  %this.addr = alloca ptr, align 8
  %k.addr = alloca ptr, align 8
  store ptr %this, ptr %this.addr, align 8
  store ptr %k, ptr %k.addr, align 8
  %this1 = load ptr, ptr %this.addr, align 8
  %iter_ = getelementptr inbounds %"class.rocksdb::IteratorWrapperBase", ptr %this1, i32 0, i32 0
  %0 = load ptr, ptr %iter_, align 8
  %1 = load ptr, ptr %k.addr, align 8
  %vtable = load ptr, ptr %0, align 8
  %vfn = getelementptr inbounds ptr, ptr %vtable, i64 6
  %2 = load ptr, ptr %vfn, align 8
  call void %2(ptr noundef nonnull align 8 dereferenceable(40) %0, ptr noundef nonnull align 8 dereferenceable(16) %1)
  call void @_ZN7rocksdb19IteratorWrapperBaseINS_10IndexValueEE6UpdateEv(ptr noundef nonnull align 8 dereferenceable(33) %this1)
  ret void
}

; Function Attrs: mustprogress uwtable
define internal void @_ZN7rocksdb12_GLOBAL__N_121TwoLevelIndexIterator4SeekERKNS_5SliceE(ptr noundef nonnull align 8 dereferenceable(160) %this, ptr noundef nonnull align 8 dereferenceable(16) %target) unnamed_addr #0 align 2 {
entry:
  %this.addr = alloca ptr, align 8
  %target.addr = alloca ptr, align 8
  store ptr %this, ptr %this.addr, align 8
  store ptr %target, ptr %target.addr, align 8
  %this1 = load ptr, ptr %this.addr, align 8
  %first_level_iter_ = getelementptr inbounds %"class.rocksdb::(anonymous namespace)::TwoLevelIndexIterator", ptr %this1, i32 0, i32 2
  %0 = load ptr, ptr %target.addr, align 8
  call void @_ZN7rocksdb19IteratorWrapperBaseINS_10IndexValueEE4SeekERKNS_5SliceE(ptr noundef nonnull align 8 dereferenceable(33) %first_level_iter_, ptr noundef nonnull align 8 dereferenceable(16) %0)
  call void @_ZN7rocksdb12_GLOBAL__N_121TwoLevelIndexIterator13InitDataBlockEv(ptr noundef nonnull align 8 dereferenceable(160) %this1)
  %second_level_iter_ = getelementptr inbounds %"class.rocksdb::(anonymous namespace)::TwoLevelIndexIterator", ptr %this1, i32 0, i32 3
  %call = call noundef ptr @_ZNK7rocksdb19IteratorWrapperBaseINS_10IndexValueEE4iterEv(ptr noundef nonnull align 8 dereferenceable(33) %second_level_iter_)
  %cmp = icmp ne ptr %call, null
  br i1 %cmp, label %if.then, label %if.end

if.then:                                          ; preds = %entry
  %second_level_iter_2 = getelementptr inbounds %"class.rocksdb::(anonymous namespace)::TwoLevelIndexIterator", ptr %this1, i32 0, i32 3
  %1 = load ptr, ptr %target.addr, align 8
  call void @_ZN7rocksdb19IteratorWrapperBaseINS_10IndexValueEE4SeekERKNS_5SliceE(ptr noundef nonnull align 8 dereferenceable(33) %second_level_iter_2, ptr noundef nonnull align 8 dereferenceable(16) %1)
  br label %if.end

if.end:                                           ; preds = %if.then, %entry
  call void @_ZN7rocksdb12_GLOBAL__N_121TwoLevelIndexIterator26SkipEmptyDataBlocksForwardEv(ptr noundef nonnull align 8 dereferenceable(160) %this1)
  ret void
}